; Function Attrs: mustprogress nofree norecurse nosync nounwind memory(argmem: readwrite) uwtable
define hidden noundef zeroext i1 @_ZN13ZNMethodTable14register_entryEP18ZNMethodTableEntrymP7nmethod(ptr nocapture noundef %0, i64 noundef %1, ptr noundef %2) local_unnamed_addr #4 align 2 {
  %4 = ptrtoint ptr %2 to i64
  %5 = add i64 %1, 4294967295
  %6 = lshr i64 %4, 3
  %7 = trunc i64 %6 to i32
  %8 = xor i32 %7, -1
  %9 = shl i32 %7, 15
  %10 = add i32 %9, %8
  %11 = lshr i32 %10, 12
  %12 = xor i32 %11, %10
  %13 = mul i32 %12, 5
  %14 = lshr i32 %13, 4
  %15 = xor i32 %14, %13
  %16 = mul i32 %15, 2057
  %17 = lshr i32 %16, 16
  %18 = xor i32 %17, %16
  %19 = zext i32 %18 to i64
  %20 = and i64 %5, %19
  %21 = add i64 %1, -1
  br label %22

22:                                               ; preds = %32, %3
  %.0 = phi i64 [ %20, %3 ], [ %34, %32 ]
  %23 = getelementptr inbounds %class.ZNMethodTableEntry, ptr %0, i64 %.0
  %24 = load i64, ptr %23, align 8
  %25 = and i64 %24, 1
  %.not = icmp eq i64 %25, 0
  br i1 %.not, label %26, label %28

26:                                               ; preds = %22
  %27 = and i64 %24, 2
  %.not17 = icmp eq i64 %27, 0
  br i1 %.not17, label %35, label %32

28:                                               ; preds = %22
  %29 = and i64 %24, -4
  %30 = inttoptr i64 %29 to ptr
  %31 = icmp eq ptr %30, %2
  br i1 %31, label %35, label %32

32:                                               ; preds = %26, %28
  %33 = add i64 %.0, 1
  %34 = and i64 %33, %21
  br label %22, !llvm.loop !6

35:                                               ; preds = %28, %26
  %36 = getelementptr inbounds %class.ZNMethodTableEntry, ptr %0, i64 %.0
  %37 = and i64 %4, -4
  %38 = or disjoint i64 %37, 1
  store i64 %38, ptr %36, align 8
  ret i1 %.not
}